target datalayout = "e-m:e-p270:32:32-p271:32:32-p272:64:64-i64:64-i128:128-f80:128-n8:16:32:64-S128"
target triple = "x86_64-pc-linux-gnu"

%struct.FDCTDSPContext = type { ptr, ptr }

; Function Attrs: nounwind uwtable
define internal void @get(ptr noundef %0, i32 noundef %1, ptr noundef %2) #1 {
  %4 = alloca ptr, align 8
  %5 = alloca i32, align 4
  %6 = alloca ptr, align 8
  %7 = alloca i32, align 4
  store ptr %0, ptr %4, align 8, !tbaa !62
  store i32 %1, ptr %5, align 4, !tbaa !52
  store ptr %2, ptr %6, align 8, !tbaa !82
  call void @llvm.lifetime.start.p0(i64 4, ptr %7) #10
  store i32 0, ptr %7, align 4, !tbaa !52
  br label %8

8:                                                ; preds = %26, %3
  %9 = load i32, ptr %7, align 4, !tbaa !52
  %10 = icmp slt i32 %9, 8
  br i1 %10, label %11, label %29

11:                                               ; preds = %8
  %12 = load ptr, ptr %4, align 8, !tbaa !62
  %13 = load i64, ptr %12, align 1, !tbaa !50
  %14 = load ptr, ptr %6, align 8, !tbaa !82
  store i64 %13, ptr %14, align 1, !tbaa !50
  %15 = load ptr, ptr %4, align 8, !tbaa !62
  %16 = getelementptr inbounds i8, ptr %15, i64 8
  %17 = load i64, ptr %16, align 1, !tbaa !50
  %18 = load ptr, ptr %6, align 8, !tbaa !82
  %19 = getelementptr inbounds i16, ptr %18, i64 4
  store i64 %17, ptr %19, align 1, !tbaa !50
  %20 = load i32, ptr %5, align 4, !tbaa !52
  %21 = load ptr, ptr %4, align 8, !tbaa !62
  %22 = sext i32 %20 to i64
  %23 = getelementptr inbounds i8, ptr %21, i64 %22
  store ptr %23, ptr %4, align 8, !tbaa !62
  %24 = load ptr, ptr %6, align 8, !tbaa !82
  %25 = getelementptr inbounds i16, ptr %24, i64 8
  store ptr %25, ptr %6, align 8, !tbaa !82
  br label %26

26:                                               ; preds = %11
  %27 = load i32, ptr %7, align 4, !tbaa !52
  %28 = add nsw i32 %27, 1
  store i32 %28, ptr %7, align 4, !tbaa !52
  br label %8, !llvm.loop !95

29:                                               ; preds = %8
  call void @llvm.lifetime.end.p0(i64 4, ptr %7) #10
  ret void
}

; Function Attrs: nounwind uwtable
define internal void @fdct_get(ptr noundef %0, ptr noundef %1, i32 noundef %2, ptr noundef %3) #1 {
  %5 = alloca ptr, align 8
  %6 = alloca ptr, align 8
  %7 = alloca i32, align 4
  %8 = alloca ptr, align 8
  store ptr %0, ptr %5, align 8, !tbaa !80
  store ptr %1, ptr %6, align 8, !tbaa !62
  store i32 %2, ptr %7, align 4, !tbaa !52
  store ptr %3, ptr %8, align 8, !tbaa !82
  %9 = load ptr, ptr %6, align 8, !tbaa !62
  %10 = load i32, ptr %7, align 4, !tbaa !52
  %11 = load ptr, ptr %8, align 8, !tbaa !82
  call void @get(ptr noundef %9, i32 noundef %10, ptr noundef %11)
  %12 = load ptr, ptr %5, align 8, !tbaa !80
  %13 = getelementptr inbounds nuw %struct.FDCTDSPContext, ptr %12, i32 0, i32 0
  %14 = load ptr, ptr %13, align 8, !tbaa !94
  %15 = load ptr, ptr %8, align 8, !tbaa !82
  call void %14(ptr noundef %15)
  ret void
}

; Function Attrs: nounwind uwtable
define internal void @calc_plane_dct(ptr noundef %0, ptr noundef %1, ptr noundef %2, i32 noundef %3, i32 noundef %4, i32 noundef %5, i32 noundef %6) #1 {
  %8 = alloca ptr, align 8
  %9 = alloca ptr, align 8
  %10 = alloca ptr, align 8
  %11 = alloca i32, align 4
  %12 = alloca i32, align 4
  %13 = alloca i32, align 4
  %14 = alloca i32, align 4
  %15 = alloca ptr, align 8
  %16 = alloca i32, align 4
  store ptr %0, ptr %8, align 8, !tbaa !80
  store ptr %1, ptr %9, align 8, !tbaa !62
  store ptr %2, ptr %10, align 8, !tbaa !82
  store i32 %3, ptr %11, align 4, !tbaa !52
  store i32 %4, ptr %12, align 4, !tbaa !52
  store i32 %5, ptr %13, align 4, !tbaa !52
  store i32 %6, ptr %14, align 4, !tbaa !52
  call void @llvm.lifetime.start.p0(i64 8, ptr %15) #10
  call void @llvm.lifetime.start.p0(i64 4, ptr %16) #10
  %17 = load ptr, ptr %10, align 8, !tbaa !82
  store ptr %17, ptr %15, align 8, !tbaa !82
  %18 = load i32, ptr %13, align 4, !tbaa !52
  %19 = icmp ne i32 %18, 0
  br i1 %19, label %64, label %20

20:                                               ; preds = %7
  store i32 0, ptr %16, align 4, !tbaa !52
  br label %21

21:                                               ; preds = %60, %20
  %22 = load i32, ptr %16, align 4, !tbaa !52
  %23 = load i32, ptr %12, align 4, !tbaa !52
  %24 = icmp slt i32 %22, %23
  br i1 %24, label %25, label %63

25:                                               ; preds = %21
  %26 = load ptr, ptr %8, align 8, !tbaa !80
  %27 = load ptr, ptr %9, align 8, !tbaa !62
  %28 = load i32, ptr %11, align 4, !tbaa !52
  %29 = load ptr, ptr %15, align 8, !tbaa !82
  %30 = getelementptr inbounds i16, ptr %29, i64 0
  call void @fdct_get(ptr noundef %26, ptr noundef %27, i32 noundef %28, ptr noundef %30)
  %31 = load ptr, ptr %8, align 8, !tbaa !80
  %32 = load ptr, ptr %9, align 8, !tbaa !62
  %33 = getelementptr inbounds i8, ptr %32, i64 16
  %34 = load i32, ptr %11, align 4, !tbaa !52
  %35 = load ptr, ptr %15, align 8, !tbaa !82
  %36 = getelementptr inbounds i16, ptr %35, i64 64
  call void @fdct_get(ptr noundef %31, ptr noundef %33, i32 noundef %34, ptr noundef %36)
  %37 = load ptr, ptr %8, align 8, !tbaa !80
  %38 = load ptr, ptr %9, align 8, !tbaa !62
  %39 = load i32, ptr %11, align 4, !tbaa !52
  %40 = mul nsw i32 8, %39
  %41 = sext i32 %40 to i64
  %42 = getelementptr inbounds i8, ptr %38, i64 %41
  %43 = load i32, ptr %11, align 4, !tbaa !52
  %44 = load ptr, ptr %15, align 8, !tbaa !82
  %45 = getelementptr inbounds i16, ptr %44, i64 128
  call void @fdct_get(ptr noundef %37, ptr noundef %42, i32 noundef %43, ptr noundef %45)
  %46 = load ptr, ptr %8, align 8, !tbaa !80
  %47 = load ptr, ptr %9, align 8, !tbaa !62
  %48 = getelementptr inbounds i8, ptr %47, i64 16
  %49 = load i32, ptr %11, align 4, !tbaa !52
  %50 = mul nsw i32 8, %49
  %51 = sext i32 %50 to i64
  %52 = getelementptr inbounds i8, ptr %48, i64 %51
  %53 = load i32, ptr %11, align 4, !tbaa !52
  %54 = load ptr, ptr %15, align 8, !tbaa !82
  %55 = getelementptr inbounds i16, ptr %54, i64 192
  call void @fdct_get(ptr noundef %46, ptr noundef %52, i32 noundef %53, ptr noundef %55)
  %56 = load ptr, ptr %15, align 8, !tbaa !82
  %57 = getelementptr inbounds i16, ptr %56, i64 256
  store ptr %57, ptr %15, align 8, !tbaa !82
  %58 = load ptr, ptr %9, align 8, !tbaa !62
  %59 = getelementptr inbounds i8, ptr %58, i64 32
  store ptr %59, ptr %9, align 8, !tbaa !62
  br label %60

60:                                               ; preds = %25
  %61 = load i32, ptr %16, align 4, !tbaa !52
  %62 = add nsw i32 %61, 1
  store i32 %62, ptr %16, align 4, !tbaa !52
  br label %21, !llvm.loop !85

63:                                               ; preds = %21
  br label %143

64:                                               ; preds = %7
  %65 = load i32, ptr %13, align 4, !tbaa !52
  %66 = icmp ne i32 %65, 0
  br i1 %66, label %67, label %98

67:                                               ; preds = %64
  %68 = load i32, ptr %14, align 4, !tbaa !52
  %69 = icmp ne i32 %68, 0
  br i1 %69, label %70, label %98

70:                                               ; preds = %67
  store i32 0, ptr %16, align 4, !tbaa !52
  br label %71

71:                                               ; preds = %94, %70
  %72 = load i32, ptr %16, align 4, !tbaa !52
  %73 = load i32, ptr %12, align 4, !tbaa !52
  %74 = icmp slt i32 %72, %73
  br i1 %74, label %75, label %97

75:                                               ; preds = %71
  %76 = load ptr, ptr %8, align 8, !tbaa !80
  %77 = load ptr, ptr %9, align 8, !tbaa !62
  %78 = load i32, ptr %11, align 4, !tbaa !52
  %79 = load ptr, ptr %15, align 8, !tbaa !82
  %80 = getelementptr inbounds i16, ptr %79, i64 0
  call void @fdct_get(ptr noundef %76, ptr noundef %77, i32 noundef %78, ptr noundef %80)
  %81 = load ptr, ptr %8, align 8, !tbaa !80
  %82 = load ptr, ptr %9, align 8, !tbaa !62
  %83 = load i32, ptr %11, align 4, !tbaa !52
  %84 = mul nsw i32 8, %83
  %85 = sext i32 %84 to i64
  %86 = getelementptr inbounds i8, ptr %82, i64 %85
  %87 = load i32, ptr %11, align 4, !tbaa !52
  %88 = load ptr, ptr %15, align 8, !tbaa !82
  %89 = getelementptr inbounds i16, ptr %88, i64 64
  call void @fdct_get(ptr noundef %81, ptr noundef %86, i32 noundef %87, ptr noundef %89)
  %90 = load ptr, ptr %15, align 8, !tbaa !82
  %91 = getelementptr inbounds i16, ptr %90, i64 128
  store ptr %91, ptr %15, align 8, !tbaa !82
  %92 = load ptr, ptr %9, align 8, !tbaa !62
  %93 = getelementptr inbounds i8, ptr %92, i64 16
  store ptr %93, ptr %9, align 8, !tbaa !62
  br label %94

94:                                               ; preds = %75
  %95 = load i32, ptr %16, align 4, !tbaa !52
  %96 = add nsw i32 %95, 1
  store i32 %96, ptr %16, align 4, !tbaa !52
  br label %71, !llvm.loop !86

97:                                               ; preds = %71
  br label %142

98:                                               ; preds = %67, %64
  store i32 0, ptr %16, align 4, !tbaa !52
  br label %99

99:                                               ; preds = %138, %98
  %100 = load i32, ptr %16, align 4, !tbaa !52
  %101 = load i32, ptr %12, align 4, !tbaa !52
  %102 = icmp slt i32 %100, %101
  br i1 %102, label %103, label %141

103:                                              ; preds = %99
  %104 = load ptr, ptr %8, align 8, !tbaa !80
  %105 = load ptr, ptr %9, align 8, !tbaa !62
  %106 = load i32, ptr %11, align 4, !tbaa !52
  %107 = load ptr, ptr %15, align 8, !tbaa !82
  %108 = getelementptr inbounds i16, ptr %107, i64 0
  call void @fdct_get(ptr noundef %104, ptr noundef %105, i32 noundef %106, ptr noundef %108)
  %109 = load ptr, ptr %8, align 8, !tbaa !80
  %110 = load ptr, ptr %9, align 8, !tbaa !62
  %111 = load i32, ptr %11, align 4, !tbaa !52
  %112 = mul nsw i32 8, %111
  %113 = sext i32 %112 to i64
  %114 = getelementptr inbounds i8, ptr %110, i64 %113
  %115 = load i32, ptr %11, align 4, !tbaa !52
  %116 = load ptr, ptr %15, align 8, !tbaa !82
  %117 = getelementptr inbounds i16, ptr %116, i64 64
  call void @fdct_get(ptr noundef %109, ptr noundef %114, i32 noundef %115, ptr noundef %117)
  %118 = load ptr, ptr %8, align 8, !tbaa !80
  %119 = load ptr, ptr %9, align 8, !tbaa !62
  %120 = getelementptr inbounds i8, ptr %119, i64 16
  %121 = load i32, ptr %11, align 4, !tbaa !52
  %122 = load ptr, ptr %15, align 8, !tbaa !82
  %123 = getelementptr inbounds i16, ptr %122, i64 128
  call void @fdct_get(ptr noundef %118, ptr noundef %120, i32 noundef %121, ptr noundef %123)
  %124 = load ptr, ptr %8, align 8, !tbaa !80
  %125 = load ptr, ptr %9, align 8, !tbaa !62
  %126 = getelementptr inbounds i8, ptr %125, i64 16
  %127 = load i32, ptr %11, align 4, !tbaa !52
  %128 = mul nsw i32 8, %127
  %129 = sext i32 %128 to i64
  %130 = getelementptr inbounds i8, ptr %126, i64 %129
  %131 = load i32, ptr %11, align 4, !tbaa !52
  %132 = load ptr, ptr %15, align 8, !tbaa !82
  %133 = getelementptr inbounds i16, ptr %132, i64 192
  call void @fdct_get(ptr noundef %124, ptr noundef %130, i32 noundef %131, ptr noundef %133)
  %134 = load ptr, ptr %15, align 8, !tbaa !82
  %135 = getelementptr inbounds i16, ptr %134, i64 256
  store ptr %135, ptr %15, align 8, !tbaa !82
  %136 = load ptr, ptr %9, align 8, !tbaa !62
  %137 = getelementptr inbounds i8, ptr %136, i64 32
  store ptr %137, ptr %9, align 8, !tbaa !62
  br label %138

138:                                              ; preds = %103
  %139 = load i32, ptr %16, align 4, !tbaa !52
  %140 = add nsw i32 %139, 1
  store i32 %140, ptr %16, align 4, !tbaa !52
  br label %99, !llvm.loop !87

141:                                              ; preds = %99
  br label %142

142:                                              ; preds = %141, %97
  br label %143

143:                                              ; preds = %142, %63
  call void @llvm.lifetime.end.p0(i64 4, ptr %16) #10
  call void @llvm.lifetime.end.p0(i64 8, ptr %15) #10
  ret void
}