; Function Attrs: nounwind uwtable
define internal fastcc void @calc_plane_dct(ptr noundef readonly captures(none) %0, ptr noundef readonly captures(none) %1, ptr noundef nonnull %2, i32 noundef %3, i32 noundef %4, i32 noundef range(i32 0, 2) %5, i32 noundef %6) unnamed_addr #1 {
  %.not = icmp eq i32 %5, 0
  br i1 %.not, label %.preheader, label %58

.preheader:                                       ; preds = %7
  %8 = icmp sgt i32 %4, 0
  br i1 %8, label %.lr.ph130, label %.loopexit

.lr.ph130:                                        ; preds = %.preheader
  %9 = sext i32 %3 to i64
  %10 = shl nsw i32 %3, 3
  %11 = sext i32 %10 to i64
  br label %12

12:                                               ; preds = %.lr.ph130, %fdct_get.exit85
  %.0129 = phi i32 [ 0, %.lr.ph130 ], [ %57, %fdct_get.exit85 ]
  %.064128 = phi ptr [ %2, %.lr.ph130 ], [ %55, %fdct_get.exit85 ]
  %.067127 = phi ptr [ %1, %.lr.ph130 ], [ %56, %fdct_get.exit85 ]
  br label %13

13:                                               ; preds = %13, %12
  %.012.i.i = phi i32 [ 0, %12 ], [ %20, %13 ]
  %.0811.i.i = phi ptr [ %.064128, %12 ], [ %19, %13 ]
  %.0910.i.i = phi ptr [ %.067127, %12 ], [ %18, %13 ]
  %14 = load i64, ptr %.0910.i.i, align 1, !tbaa !47
  store i64 %14, ptr %.0811.i.i, align 1, !tbaa !47
  %15 = getelementptr inbounds nuw i8, ptr %.0910.i.i, i64 8
  %16 = load i64, ptr %15, align 1, !tbaa !47
  %17 = getelementptr inbounds nuw i8, ptr %.0811.i.i, i64 8
  store i64 %16, ptr %17, align 1, !tbaa !47
  %18 = getelementptr inbounds i8, ptr %.0910.i.i, i64 %9
  %19 = getelementptr inbounds nuw i8, ptr %.0811.i.i, i64 16
  %20 = add nuw nsw i32 %.012.i.i, 1
  %exitcond.not.i.i = icmp eq i32 %20, 8
  br i1 %exitcond.not.i.i, label %fdct_get.exit, label %13, !llvm.loop !67

fdct_get.exit:                                    ; preds = %13
  %21 = load ptr, ptr %0, align 8, !tbaa !68
  tail call void %21(ptr noundef nonnull %.064128) #8
  %22 = getelementptr inbounds nuw i8, ptr %.067127, i64 16
  %23 = getelementptr inbounds nuw i8, ptr %.064128, i64 128
  br label %24

24:                                               ; preds = %24, %fdct_get.exit
  %.012.i.i71 = phi i32 [ 0, %fdct_get.exit ], [ %31, %24 ]
  %.0811.i.i72 = phi ptr [ %23, %fdct_get.exit ], [ %30, %24 ]
  %.0910.i.i73 = phi ptr [ %22, %fdct_get.exit ], [ %29, %24 ]
  %25 = load i64, ptr %.0910.i.i73, align 1, !tbaa !47
  store i64 %25, ptr %.0811.i.i72, align 1, !tbaa !47
  %26 = getelementptr inbounds nuw i8, ptr %.0910.i.i73, i64 8
  %27 = load i64, ptr %26, align 1, !tbaa !47
  %28 = getelementptr inbounds nuw i8, ptr %.0811.i.i72, i64 8
  store i64 %27, ptr %28, align 1, !tbaa !47
  %29 = getelementptr inbounds i8, ptr %.0910.i.i73, i64 %9
  %30 = getelementptr inbounds nuw i8, ptr %.0811.i.i72, i64 16
  %31 = add nuw nsw i32 %.012.i.i71, 1
  %exitcond.not.i.i74 = icmp eq i32 %31, 8
  br i1 %exitcond.not.i.i74, label %fdct_get.exit75, label %24, !llvm.loop !67

fdct_get.exit75:                                  ; preds = %24
  %32 = load ptr, ptr %0, align 8, !tbaa !68
  tail call void %32(ptr noundef nonnull %23) #8
  %33 = getelementptr inbounds i8, ptr %.067127, i64 %11
  %34 = getelementptr inbounds nuw i8, ptr %.064128, i64 256
  br label %35

35:                                               ; preds = %35, %fdct_get.exit75
  %.012.i.i76 = phi i32 [ 0, %fdct_get.exit75 ], [ %42, %35 ]
  %.0811.i.i77 = phi ptr [ %34, %fdct_get.exit75 ], [ %41, %35 ]
  %.0910.i.i78 = phi ptr [ %33, %fdct_get.exit75 ], [ %40, %35 ]
  %36 = load i64, ptr %.0910.i.i78, align 1, !tbaa !47
  store i64 %36, ptr %.0811.i.i77, align 1, !tbaa !47
  %37 = getelementptr inbounds nuw i8, ptr %.0910.i.i78, i64 8
  %38 = load i64, ptr %37, align 1, !tbaa !47
  %39 = getelementptr inbounds nuw i8, ptr %.0811.i.i77, i64 8
  store i64 %38, ptr %39, align 1, !tbaa !47
  %40 = getelementptr inbounds i8, ptr %.0910.i.i78, i64 %9
  %41 = getelementptr inbounds nuw i8, ptr %.0811.i.i77, i64 16
  %42 = add nuw nsw i32 %.012.i.i76, 1
  %exitcond.not.i.i79 = icmp eq i32 %42, 8
  br i1 %exitcond.not.i.i79, label %fdct_get.exit80, label %35, !llvm.loop !67

fdct_get.exit80:                                  ; preds = %35
  %43 = load ptr, ptr %0, align 8, !tbaa !68
  tail call void %43(ptr noundef nonnull %34) #8
  %44 = getelementptr inbounds i8, ptr %22, i64 %11
  %45 = getelementptr inbounds nuw i8, ptr %.064128, i64 384
  br label %46

46:                                               ; preds = %46, %fdct_get.exit80
  %.012.i.i81 = phi i32 [ 0, %fdct_get.exit80 ], [ %53, %46 ]
  %.0811.i.i82 = phi ptr [ %45, %fdct_get.exit80 ], [ %52, %46 ]
  %.0910.i.i83 = phi ptr [ %44, %fdct_get.exit80 ], [ %51, %46 ]
  %47 = load i64, ptr %.0910.i.i83, align 1, !tbaa !47
  store i64 %47, ptr %.0811.i.i82, align 1, !tbaa !47
  %48 = getelementptr inbounds nuw i8, ptr %.0910.i.i83, i64 8
  %49 = load i64, ptr %48, align 1, !tbaa !47
  %50 = getelementptr inbounds nuw i8, ptr %.0811.i.i82, i64 8
  store i64 %49, ptr %50, align 1, !tbaa !47
  %51 = getelementptr inbounds i8, ptr %.0910.i.i83, i64 %9
  %52 = getelementptr inbounds nuw i8, ptr %.0811.i.i82, i64 16
  %53 = add nuw nsw i32 %.012.i.i81, 1
  %exitcond.not.i.i84 = icmp eq i32 %53, 8
  br i1 %exitcond.not.i.i84, label %fdct_get.exit85, label %46, !llvm.loop !67

fdct_get.exit85:                                  ; preds = %46
  %54 = load ptr, ptr %0, align 8, !tbaa !68
  tail call void %54(ptr noundef nonnull %45) #8
  %55 = getelementptr inbounds nuw i8, ptr %.064128, i64 512
  %56 = getelementptr inbounds nuw i8, ptr %.067127, i64 32
  %57 = add nuw nsw i32 %.0129, 1
  %exitcond134.not = icmp eq i32 %57, %4
  br i1 %exitcond134.not, label %.loopexit, label %12, !llvm.loop !69

58:                                               ; preds = %7
  %.not70 = icmp eq i32 %6, 0
  %59 = icmp sgt i32 %4, 0
  br i1 %.not70, label %.preheader116, label %.preheader118

.preheader118:                                    ; preds = %58
  br i1 %59, label %.lr.ph, label %.loopexit

.lr.ph:                                           ; preds = %.preheader118
  %60 = sext i32 %3 to i64
  %61 = shl nsw i32 %3, 3
  %62 = sext i32 %61 to i64
  br label %66

.preheader116:                                    ; preds = %58
  br i1 %59, label %.lr.ph126, label %.loopexit

.lr.ph126:                                        ; preds = %.preheader116
  %63 = sext i32 %3 to i64
  %64 = shl nsw i32 %3, 3
  %65 = sext i32 %64 to i64
  br label %90

66:                                               ; preds = %.lr.ph, %fdct_get.exit95
  %.1122 = phi i32 [ 0, %.lr.ph ], [ %89, %fdct_get.exit95 ]
  %.165121 = phi ptr [ %2, %.lr.ph ], [ %87, %fdct_get.exit95 ]
  %.168120 = phi ptr [ %1, %.lr.ph ], [ %88, %fdct_get.exit95 ]
  br label %67

67:                                               ; preds = %67, %66
  %.012.i.i86 = phi i32 [ 0, %66 ], [ %74, %67 ]
  %.0811.i.i87 = phi ptr [ %.165121, %66 ], [ %73, %67 ]
  %.0910.i.i88 = phi ptr [ %.168120, %66 ], [ %72, %67 ]
  %68 = load i64, ptr %.0910.i.i88, align 1, !tbaa !47
  store i64 %68, ptr %.0811.i.i87, align 1, !tbaa !47
  %69 = getelementptr inbounds nuw i8, ptr %.0910.i.i88, i64 8
  %70 = load i64, ptr %69, align 1, !tbaa !47
  %71 = getelementptr inbounds nuw i8, ptr %.0811.i.i87, i64 8
  store i64 %70, ptr %71, align 1, !tbaa !47
  %72 = getelementptr inbounds i8, ptr %.0910.i.i88, i64 %60
  %73 = getelementptr inbounds nuw i8, ptr %.0811.i.i87, i64 16
  %74 = add nuw nsw i32 %.012.i.i86, 1
  %exitcond.not.i.i89 = icmp eq i32 %74, 8
  br i1 %exitcond.not.i.i89, label %fdct_get.exit90, label %67, !llvm.loop !67

fdct_get.exit90:                                  ; preds = %67
  %75 = load ptr, ptr %0, align 8, !tbaa !68
  tail call void %75(ptr noundef nonnull %.165121) #8
  %76 = getelementptr inbounds i8, ptr %.168120, i64 %62
  %77 = getelementptr inbounds nuw i8, ptr %.165121, i64 128
  br label %78

78:                                               ; preds = %78, %fdct_get.exit90
  %.012.i.i91 = phi i32 [ 0, %fdct_get.exit90 ], [ %85, %78 ]
  %.0811.i.i92 = phi ptr [ %77, %fdct_get.exit90 ], [ %84, %78 ]
  %.0910.i.i93 = phi ptr [ %76, %fdct_get.exit90 ], [ %83, %78 ]
  %79 = load i64, ptr %.0910.i.i93, align 1, !tbaa !47
  store i64 %79, ptr %.0811.i.i92, align 1, !tbaa !47
  %80 = getelementptr inbounds nuw i8, ptr %.0910.i.i93, i64 8
  %81 = load i64, ptr %80, align 1, !tbaa !47
  %82 = getelementptr inbounds nuw i8, ptr %.0811.i.i92, i64 8
  store i64 %81, ptr %82, align 1, !tbaa !47
  %83 = getelementptr inbounds i8, ptr %.0910.i.i93, i64 %60
  %84 = getelementptr inbounds nuw i8, ptr %.0811.i.i92, i64 16
  %85 = add nuw nsw i32 %.012.i.i91, 1
  %exitcond.not.i.i94 = icmp eq i32 %85, 8
  br i1 %exitcond.not.i.i94, label %fdct_get.exit95, label %78, !llvm.loop !67

fdct_get.exit95:                                  ; preds = %78
  %86 = load ptr, ptr %0, align 8, !tbaa !68
  tail call void %86(ptr noundef nonnull %77) #8
  %87 = getelementptr inbounds nuw i8, ptr %.165121, i64 256
  %88 = getelementptr inbounds nuw i8, ptr %.168120, i64 16
  %89 = add nuw nsw i32 %.1122, 1
  %exitcond.not = icmp eq i32 %89, %4
  br i1 %exitcond.not, label %.loopexit, label %66, !llvm.loop !77

90:                                               ; preds = %.lr.ph126, %fdct_get.exit115
  %.2125 = phi i32 [ 0, %.lr.ph126 ], [ %135, %fdct_get.exit115 ]
  %.266124 = phi ptr [ %2, %.lr.ph126 ], [ %133, %fdct_get.exit115 ]
  %.269123 = phi ptr [ %1, %.lr.ph126 ], [ %134, %fdct_get.exit115 ]
  br label %91

91:                                               ; preds = %91, %90
  %.012.i.i96 = phi i32 [ 0, %90 ], [ %98, %91 ]
  %.0811.i.i97 = phi ptr [ %.266124, %90 ], [ %97, %91 ]
  %.0910.i.i98 = phi ptr [ %.269123, %90 ], [ %96, %91 ]
  %92 = load i64, ptr %.0910.i.i98, align 1, !tbaa !47
  store i64 %92, ptr %.0811.i.i97, align 1, !tbaa !47
  %93 = getelementptr inbounds nuw i8, ptr %.0910.i.i98, i64 8
  %94 = load i64, ptr %93, align 1, !tbaa !47
  %95 = getelementptr inbounds nuw i8, ptr %.0811.i.i97, i64 8
  store i64 %94, ptr %95, align 1, !tbaa !47
  %96 = getelementptr inbounds i8, ptr %.0910.i.i98, i64 %63
  %97 = getelementptr inbounds nuw i8, ptr %.0811.i.i97, i64 16
  %98 = add nuw nsw i32 %.012.i.i96, 1
  %exitcond.not.i.i99 = icmp eq i32 %98, 8
  br i1 %exitcond.not.i.i99, label %fdct_get.exit100, label %91, !llvm.loop !67

fdct_get.exit100:                                 ; preds = %91
  %99 = load ptr, ptr %0, align 8, !tbaa !68
  tail call void %99(ptr noundef nonnull %.266124) #8
  %100 = getelementptr inbounds i8, ptr %.269123, i64 %65
  %101 = getelementptr inbounds nuw i8, ptr %.266124, i64 128
  br label %102

102:                                              ; preds = %102, %fdct_get.exit100
  %.012.i.i101 = phi i32 [ 0, %fdct_get.exit100 ], [ %109, %102 ]
  %.0811.i.i102 = phi ptr [ %101, %fdct_get.exit100 ], [ %108, %102 ]
  %.0910.i.i103 = phi ptr [ %100, %fdct_get.exit100 ], [ %107, %102 ]
  %103 = load i64, ptr %.0910.i.i103, align 1, !tbaa !47
  store i64 %103, ptr %.0811.i.i102, align 1, !tbaa !47
  %104 = getelementptr inbounds nuw i8, ptr %.0910.i.i103, i64 8
  %105 = load i64, ptr %104, align 1, !tbaa !47
  %106 = getelementptr inbounds nuw i8, ptr %.0811.i.i102, i64 8
  store i64 %105, ptr %106, align 1, !tbaa !47
  %107 = getelementptr inbounds i8, ptr %.0910.i.i103, i64 %63
  %108 = getelementptr inbounds nuw i8, ptr %.0811.i.i102, i64 16
  %109 = add nuw nsw i32 %.012.i.i101, 1
  %exitcond.not.i.i104 = icmp eq i32 %109, 8
  br i1 %exitcond.not.i.i104, label %fdct_get.exit105, label %102, !llvm.loop !67

fdct_get.exit105:                                 ; preds = %102
  %110 = load ptr, ptr %0, align 8, !tbaa !68
  tail call void %110(ptr noundef nonnull %101) #8
  %111 = getelementptr inbounds nuw i8, ptr %.269123, i64 16
  %112 = getelementptr inbounds nuw i8, ptr %.266124, i64 256
  br label %113

113:                                              ; preds = %113, %fdct_get.exit105
  %.012.i.i106 = phi i32 [ 0, %fdct_get.exit105 ], [ %120, %113 ]
  %.0811.i.i107 = phi ptr [ %112, %fdct_get.exit105 ], [ %119, %113 ]
  %.0910.i.i108 = phi ptr [ %111, %fdct_get.exit105 ], [ %118, %113 ]
  %114 = load i64, ptr %.0910.i.i108, align 1, !tbaa !47
  store i64 %114, ptr %.0811.i.i107, align 1, !tbaa !47
  %115 = getelementptr inbounds nuw i8, ptr %.0910.i.i108, i64 8
  %116 = load i64, ptr %115, align 1, !tbaa !47
  %117 = getelementptr inbounds nuw i8, ptr %.0811.i.i107, i64 8
  store i64 %116, ptr %117, align 1, !tbaa !47
  %118 = getelementptr inbounds i8, ptr %.0910.i.i108, i64 %63
  %119 = getelementptr inbounds nuw i8, ptr %.0811.i.i107, i64 16
  %120 = add nuw nsw i32 %.012.i.i106, 1
  %exitcond.not.i.i109 = icmp eq i32 %120, 8
  br i1 %exitcond.not.i.i109, label %fdct_get.exit110, label %113, !llvm.loop !67

fdct_get.exit110:                                 ; preds = %113
  %121 = load ptr, ptr %0, align 8, !tbaa !68
  tail call void %121(ptr noundef nonnull %112) #8
  %122 = getelementptr inbounds i8, ptr %111, i64 %65
  %123 = getelementptr inbounds nuw i8, ptr %.266124, i64 384
  br label %124

124:                                              ; preds = %124, %fdct_get.exit110
  %.012.i.i111 = phi i32 [ 0, %fdct_get.exit110 ], [ %131, %124 ]
  %.0811.i.i112 = phi ptr [ %123, %fdct_get.exit110 ], [ %130, %124 ]
  %.0910.i.i113 = phi ptr [ %122, %fdct_get.exit110 ], [ %129, %124 ]
  %125 = load i64, ptr %.0910.i.i113, align 1, !tbaa !47
  store i64 %125, ptr %.0811.i.i112, align 1, !tbaa !47
  %126 = getelementptr inbounds nuw i8, ptr %.0910.i.i113, i64 8
  %127 = load i64, ptr %126, align 1, !tbaa !47
  %128 = getelementptr inbounds nuw i8, ptr %.0811.i.i112, i64 8
  store i64 %127, ptr %128, align 1, !tbaa !47
  %129 = getelementptr inbounds i8, ptr %.0910.i.i113, i64 %63
  %130 = getelementptr inbounds nuw i8, ptr %.0811.i.i112, i64 16
  %131 = add nuw nsw i32 %.012.i.i111, 1
  %exitcond.not.i.i114 = icmp eq i32 %131, 8
  br i1 %exitcond.not.i.i114, label %fdct_get.exit115, label %124, !llvm.loop !67

fdct_get.exit115:                                 ; preds = %124
  %132 = load ptr, ptr %0, align 8, !tbaa !68
  tail call void %132(ptr noundef nonnull %123) #8
  %133 = getelementptr inbounds nuw i8, ptr %.266124, i64 512
  %134 = getelementptr inbounds nuw i8, ptr %.269123, i64 32
  %135 = add nuw nsw i32 %.2125, 1
  %exitcond133.not = icmp eq i32 %135, %4
  br i1 %exitcond133.not, label %.loopexit, label %90, !llvm.loop !78

.loopexit:                                        ; preds = %fdct_get.exit95, %fdct_get.exit115, %fdct_get.exit85, %.preheader118, %.preheader116, %.preheader
  ret void
}